target datalayout = "e-m:e-p270:32:32-p271:32:32-p272:64:64-i64:64-i128:128-f80:128-n8:16:32:64-S128"
target triple = "x86_64-pc-linux-gnu"

; Function Attrs: mustprogress nounwind uwtable
define noundef zeroext i1 @_Z12IsUnreadablej(i32 noundef %0) #4 {
  %2 = alloca i32, align 4
  store i32 %0, ptr %2, align 4
  %3 = load i32, ptr %2, align 4
  %4 = and i32 %3, 61440
  %5 = icmp eq i32 %4, 4096
  br i1 %5, label %14, label %6

6:                                                ; preds = %1
  %7 = load i32, ptr %2, align 4
  %8 = and i32 %7, 61440
  %9 = icmp eq i32 %8, 49152
  br i1 %9, label %14, label %10

10:                                               ; preds = %6
  %11 = load i32, ptr %2, align 4
  %12 = and i32 %11, 61440
  %13 = icmp eq i32 %12, 8192
  br label %14

14:                                               ; preds = %10, %6, %1
  %15 = phi i1 [ true, %6 ], [ true, %1 ], [ %13, %10 ]
  ret i1 %15
}